; Function Attrs: mustprogress nofree norecurse nosync nounwind willreturn memory(readwrite, inaccessiblemem: none) uwtable
define internal void @_ZN8LightGBM8Metadata22SetQueriesFromIteratorIPKiEEvT_S4_.omp_outlined.omp.reduction.reduction_func(ptr noundef readonly captures(none) %0, ptr noundef readonly captures(none) %1) #23 {
  %3 = load ptr, ptr %1, align 8
  %4 = load ptr, ptr %0, align 8
  %5 = load i32, ptr %4, align 4, !tbaa !59
  %6 = load i32, ptr %3, align 4, !tbaa !59
  %7 = add nsw i32 %6, %5
  store i32 %7, ptr %4, align 4, !tbaa !59
  ret void
}